target datalayout = "e-m:e-p270:32:32-p271:32:32-p272:64:64-i64:64-i128:128-f80:128-n8:16:32:64-S128"
target triple = "x86_64-pc-linux-gnu"

%"class.base::File" = type <{ %"class.base::ScopedGeneric", [4 x i8], %"class.base::FilePath", [4 x i8], i32, i8, i8, [6 x i8] }>
%"class.base::ScopedGeneric" = type { %"struct.base::ScopedGeneric<int, base::internal::ScopedFDCloseTraits>::Data" }
%"struct.base::ScopedGeneric<int, base::internal::ScopedFDCloseTraits>::Data" = type { i32 }
%"class.base::FilePath" = type { %"class.std::__cxx11::basic_string" }
%"class.std::__cxx11::basic_string" = type { %"struct.std::__cxx11::basic_string<char>::_Alloc_hider", i64, %union.anon }
%"struct.std::__cxx11::basic_string<char>::_Alloc_hider" = type { ptr }
%union.anon = type { i64, [8 x i8] }
%"class.base::FileTracing::ScopedTrace" = type { ptr, ptr }

@.str.3 = private unnamed_addr constant [23 x i8] c"File::ReadAtCurrentPos\00", align 1

; Function Attrs: mustprogress nounwind uwtable
define linkonce_odr noundef nonnull align 4 dereferenceable(4) ptr @_ZNK4base13ScopedGenericIiNS_8internal19ScopedFDCloseTraitsEE3getEv(ptr noundef nonnull align 4 dereferenceable(4) %0) #4 comdat align 2 {
  %2 = alloca ptr, align 8
  store ptr %0, ptr %2, align 8, !tbaa !36
  %3 = load ptr, ptr %2, align 8
  %4 = getelementptr inbounds nuw %"class.base::ScopedGeneric", ptr %3, i32 0, i32 0
  %5 = getelementptr inbounds nuw %"struct.base::ScopedGeneric<int, base::internal::ScopedFDCloseTraits>::Data", ptr %4, i32 0, i32 0
  ret ptr %5
}

; Function Attrs: mustprogress nounwind uwtable
define linkonce_odr void @_ZN4base18ThreadRestrictions15AssertIOAllowedEv() #4 comdat align 2 {
  ret void
}

; Function Attrs: mustprogress uwtable
define noundef i32 @_ZN4base4File16ReadAtCurrentPosEPci(ptr noundef nonnull align 8 dereferenceable(50) %0, ptr noundef %1, i32 noundef %2) #0 align 2 personality ptr @__gxx_personality_v0 {
  %4 = alloca i32, align 4
  %5 = alloca ptr, align 8
  %6 = alloca ptr, align 8
  %7 = alloca i32, align 4
  %8 = alloca %"class.base::FileTracing::ScopedTrace", align 8
  %9 = alloca ptr, align 8
  %10 = alloca i32, align 4
  %11 = alloca i32, align 4
  %12 = alloca i32, align 4
  %13 = alloca i64, align 8
  %14 = alloca i64, align 8
  store ptr %0, ptr %5, align 8, !tbaa !34
  store ptr %1, ptr %6, align 8, !tbaa !46
  store i32 %2, ptr %7, align 4, !tbaa !41
  %15 = load ptr, ptr %5, align 8
  call void @_ZN4base18ThreadRestrictions15AssertIOAllowedEv()
  %16 = load i32, ptr %7, align 4, !tbaa !41
  %17 = icmp slt i32 %16, 0
  br i1 %17, label %18, label %19

18:                                               ; preds = %3
  store i32 -1, ptr %4, align 4
  br label %85

19:                                               ; preds = %3
  call void @llvm.lifetime.start.p0(i64 16, ptr %8) #14
  call void @_ZN4base11FileTracing11ScopedTraceC1Ev(ptr noundef nonnull align 8 dereferenceable(16) %8)
  %20 = invoke noundef zeroext i1 @_ZN4base11FileTracing17IsCategoryEnabledEv()
          to label %21 unwind label %26

21:                                               ; preds = %19
  br i1 %20, label %22, label %30

22:                                               ; preds = %21
  %23 = load i32, ptr %7, align 4, !tbaa !41
  %24 = sext i32 %23 to i64
  invoke void @_ZN4base11FileTracing11ScopedTrace10InitializeEPKcPKNS_4FileEl(ptr noundef nonnull align 8 dereferenceable(16) %8, ptr noundef @.str.3, ptr noundef %15, i64 noundef %24)
          to label %25 unwind label %26

25:                                               ; preds = %22
  br label %30

26:                                               ; preds = %22, %19
  %27 = landingpad { ptr, i32 }
          cleanup
  %28 = extractvalue { ptr, i32 } %27, 0
  store ptr %28, ptr %9, align 8
  %29 = extractvalue { ptr, i32 } %27, 1
  store i32 %29, ptr %10, align 4
  br label %84

30:                                               ; preds = %25, %21
  call void @llvm.lifetime.start.p0(i64 4, ptr %11) #14
  store i32 0, ptr %11, align 4, !tbaa !41
  call void @llvm.lifetime.start.p0(i64 4, ptr %12) #14
  br label %31

31:                                               ; preds = %71, %30
  call void @llvm.lifetime.start.p0(i64 8, ptr %13) #14
  br label %32

32:                                               ; preds = %54, %31
  %33 = getelementptr inbounds nuw %"class.base::File", ptr %15, i32 0, i32 0
  %34 = invoke noundef nonnull align 4 dereferenceable(4) ptr @_ZNK4base13ScopedGenericIiNS_8internal19ScopedFDCloseTraitsEE3getEv(ptr noundef nonnull align 4 dereferenceable(4) %33)
          to label %35 unwind label %63

35:                                               ; preds = %32
  %36 = load i32, ptr %34, align 4, !tbaa !41
  %37 = load ptr, ptr %6, align 8, !tbaa !46
  %38 = load i32, ptr %11, align 4, !tbaa !41
  %39 = sext i32 %38 to i64
  %40 = getelementptr inbounds i8, ptr %37, i64 %39
  %41 = load i32, ptr %7, align 4, !tbaa !41
  %42 = load i32, ptr %11, align 4, !tbaa !41
  %43 = sub nsw i32 %41, %42
  %44 = sext i32 %43 to i64
  %45 = invoke i64 @read(i32 noundef %36, ptr noundef %40, i64 noundef %44)
          to label %46 unwind label %63

46:                                               ; preds = %35
  store i64 %45, ptr %13, align 8, !tbaa !24
  br label %47

47:                                               ; preds = %46
  %48 = load i64, ptr %13, align 8, !tbaa !24
  %49 = icmp eq i64 %48, -1
  br i1 %49, label %50, label %54

50:                                               ; preds = %47
  %51 = call ptr @__errno_location() #16
  %52 = load i32, ptr %51, align 4, !tbaa !41
  %53 = icmp eq i32 %52, 4
  br label %54

54:                                               ; preds = %50, %47
  %55 = phi i1 [ false, %47 ], [ %53, %50 ]
  br i1 %55, label %32, label %56, !llvm.loop !51

56:                                               ; preds = %54
  %57 = load i64, ptr %13, align 8, !tbaa !24
  store i64 %57, ptr %14, align 8, !tbaa !24
  call void @llvm.lifetime.end.p0(i64 8, ptr %13) #14
  %58 = load i64, ptr %14, align 8, !tbaa !24
  %59 = trunc i64 %58 to i32
  store i32 %59, ptr %12, align 4, !tbaa !41
  %60 = load i32, ptr %12, align 4, !tbaa !41
  %61 = icmp sle i32 %60, 0
  br i1 %61, label %62, label %67

62:                                               ; preds = %56
  br label %75

63:                                               ; preds = %35, %32
  %64 = landingpad { ptr, i32 }
          cleanup
  %65 = extractvalue { ptr, i32 } %64, 0
  store ptr %65, ptr %9, align 8
  %66 = extractvalue { ptr, i32 } %64, 1
  store i32 %66, ptr %10, align 4
  call void @llvm.lifetime.end.p0(i64 8, ptr %13) #14
  call void @llvm.lifetime.end.p0(i64 4, ptr %12) #14
  call void @llvm.lifetime.end.p0(i64 4, ptr %11) #14
  br label %84

67:                                               ; preds = %56
  %68 = load i32, ptr %12, align 4, !tbaa !41
  %69 = load i32, ptr %11, align 4, !tbaa !41
  %70 = add nsw i32 %69, %68
  store i32 %70, ptr %11, align 4, !tbaa !41
  br label %71

71:                                               ; preds = %67
  %72 = load i32, ptr %11, align 4, !tbaa !41
  %73 = load i32, ptr %7, align 4, !tbaa !41
  %74 = icmp slt i32 %72, %73
  br i1 %74, label %31, label %75, !llvm.loop !52

75:                                               ; preds = %71, %62
  %76 = load i32, ptr %11, align 4, !tbaa !41
  %77 = icmp ne i32 %76, 0
  br i1 %77, label %78, label %80

78:                                               ; preds = %75
  %79 = load i32, ptr %11, align 4, !tbaa !41
  br label %82

80:                                               ; preds = %75
  %81 = load i32, ptr %12, align 4, !tbaa !41
  br label %82

82:                                               ; preds = %80, %78
  %83 = phi i32 [ %79, %78 ], [ %81, %80 ]
  store i32 %83, ptr %4, align 4
  call void @llvm.lifetime.end.p0(i64 4, ptr %12) #14
  call void @llvm.lifetime.end.p0(i64 4, ptr %11) #14
  call void @_ZN4base11FileTracing11ScopedTraceD1Ev(ptr noundef nonnull align 8 dereferenceable(16) %8) #14
  call void @llvm.lifetime.end.p0(i64 16, ptr %8) #14
  br label %85

84:                                               ; preds = %63, %26
  call void @_ZN4base11FileTracing11ScopedTraceD1Ev(ptr noundef nonnull align 8 dereferenceable(16) %8) #14
  call void @llvm.lifetime.end.p0(i64 16, ptr %8) #14
  br label %87

85:                                               ; preds = %82, %18
  %86 = load i32, ptr %4, align 4
  ret i32 %86

87:                                               ; preds = %84
  %88 = load ptr, ptr %9, align 8
  %89 = load i32, ptr %10, align 4
  %90 = insertvalue { ptr, i32 } poison, ptr %88, 0
  %91 = insertvalue { ptr, i32 } %90, i32 %89, 1
  resume { ptr, i32 } %91
}